target datalayout = "e-m:e-p270:32:32-p271:32:32-p272:64:64-i64:64-i128:128-f80:128-n8:16:32:64-S128"
target triple = "x86_64-pc-linux-gnu"

; Function Attrs: inlinehint nounwind sspstrong uwtable
define internal i64 @tswap64(i64 noundef %0) #2 {
  %2 = alloca i64, align 8
  store i64 %0, ptr %2, align 8
  %3 = load i64, ptr %2, align 8
  ret i64 %3
}

; Function Attrs: inlinehint nounwind sspstrong uwtable
define internal i32 @gdb_get_reg64(ptr noundef %0, i64 noundef %1) #2 {
  %3 = alloca ptr, align 8
  %4 = alloca i64, align 8
  %5 = alloca i64, align 8
  store ptr %0, ptr %3, align 8
  store i64 %1, ptr %4, align 8
  call void @llvm.lifetime.start.p0(i64 8, ptr %5) #7
  %6 = load i64, ptr %4, align 8
  %7 = call i64 @tswap64(i64 noundef %6)
  store i64 %7, ptr %5, align 8
  %8 = load ptr, ptr %3, align 8
  %9 = call ptr @g_byte_array_append(ptr noundef %8, ptr noundef %5, i32 noundef 8)
  call void @llvm.lifetime.end.p0(i64 8, ptr %5) #7
  ret i32 8
}

; Function Attrs: nounwind sspstrong uwtable
define internal i32 @riscv_gdb_get_virtual(ptr noundef %0, ptr noundef %1, i32 noundef %2) #0 {
  %4 = alloca i32, align 4
  %5 = alloca ptr, align 8
  %6 = alloca ptr, align 8
  %7 = alloca i32, align 4
  store ptr %0, ptr %5, align 8
  store ptr %1, ptr %6, align 8
  store i32 %2, ptr %7, align 4
  %8 = load i32, ptr %7, align 4
  %9 = icmp eq i32 %8, 0
  br i1 %9, label %10, label %13

10:                                               ; preds = %3
  %11 = load ptr, ptr %6, align 8
  %12 = call i32 @gdb_get_reg64(ptr noundef %11, i64 noundef 0)
  store i32 %12, ptr %4, align 4
  br label %14

13:                                               ; preds = %3
  store i32 0, ptr %4, align 4
  br label %14

14:                                               ; preds = %13, %10
  %15 = load i32, ptr %4, align 4
  ret i32 %15
}