; Function Attrs: nounwind sspstrong uwtable
define internal range(i32 0, 9) i32 @riscv_gdb_get_virtual(ptr readnone captures(none) %0, ptr noundef %1, i32 noundef %2) #0 {
  %4 = alloca i64, align 8
  %5 = icmp eq i32 %2, 0
  br i1 %5, label %6, label %8

6:                                                ; preds = %3
  call void @llvm.lifetime.start.p0(i64 8, ptr nonnull %4) #7
  store i64 0, ptr %4, align 8
  %7 = call ptr @g_byte_array_append(ptr noundef %1, ptr noundef nonnull %4, i32 noundef 8) #7
  call void @llvm.lifetime.end.p0(i64 8, ptr nonnull %4) #7
  br label %8

8:                                                ; preds = %3, %6
  %.0 = phi i32 [ 8, %6 ], [ 0, %3 ]
  ret i32 %.0
}